; Function Attrs: mustprogress nounwind willreturn uwtable
define ptr @stb_leakcheck_realloc(ptr noundef captures(address_is_null, ret: address, provenance) %0, i64 noundef %1, ptr noundef %2, i32 noundef %3) local_unnamed_addr #4 {
  %5 = icmp eq ptr %0, null
  br i1 %5, label %6, label %21

6:                                                ; preds = %4
  %7 = add i64 %1, 40
  %8 = tail call noalias ptr @malloc(i64 noundef %7) #8
  %9 = icmp eq ptr %8, null
  br i1 %9, label %stb_leakcheck_malloc.exit, label %10

10:                                               ; preds = %6
  store ptr %2, ptr %8, align 8, !tbaa !3
  %11 = getelementptr inbounds nuw i8, ptr %8, i64 8
  store i32 %3, ptr %11, align 8, !tbaa !12
  %12 = load ptr, ptr @mi_head, align 8, !tbaa !13
  %13 = getelementptr inbounds nuw i8, ptr %8, i64 24
  store ptr %12, ptr %13, align 8, !tbaa !14
  %.not.i = icmp eq ptr %12, null
  br i1 %.not.i, label %16, label %14

14:                                               ; preds = %10
  %15 = getelementptr inbounds nuw i8, ptr %12, i64 32
  store ptr %8, ptr %15, align 8, !tbaa !15
  br label %16

16:                                               ; preds = %14, %10
  %17 = getelementptr inbounds nuw i8, ptr %8, i64 32
  store ptr null, ptr %17, align 8, !tbaa !15
  %sext.i = shl i64 %1, 32
  %18 = ashr exact i64 %sext.i, 32
  %19 = getelementptr inbounds nuw i8, ptr %8, i64 16
  store i64 %18, ptr %19, align 8, !tbaa !16
  store ptr %8, ptr @mi_head, align 8, !tbaa !13
  %20 = getelementptr inbounds nuw i8, ptr %8, i64 40
  br label %stb_leakcheck_malloc.exit

21:                                               ; preds = %4
  %22 = icmp eq i64 %1, 0
  br i1 %22, label %23, label %40

23:                                               ; preds = %21
  %24 = getelementptr inbounds i8, ptr %0, i64 -40
  %25 = getelementptr inbounds i8, ptr %0, i64 -24
  %26 = load i64, ptr %25, align 8, !tbaa !16
  %27 = xor i64 %26, -1
  store i64 %27, ptr %25, align 8, !tbaa !16
  %28 = getelementptr inbounds i8, ptr %0, i64 -8
  %29 = load ptr, ptr %28, align 8, !tbaa !15
  %30 = icmp eq ptr %29, null
  %31 = getelementptr inbounds i8, ptr %0, i64 -16
  %32 = load ptr, ptr %31, align 8, !tbaa !14
  br i1 %30, label %33, label %34

33:                                               ; preds = %23
  store ptr %32, ptr @mi_head, align 8, !tbaa !13
  br label %36

34:                                               ; preds = %23
  %35 = getelementptr inbounds nuw i8, ptr %29, i64 24
  store ptr %32, ptr %35, align 8, !tbaa !14
  br label %36

36:                                               ; preds = %34, %33
  %.not14.i = icmp eq ptr %32, null
  br i1 %.not14.i, label %stb_leakcheck_free.exit, label %37

37:                                               ; preds = %36
  %38 = load ptr, ptr %28, align 8, !tbaa !15
  %39 = getelementptr inbounds nuw i8, ptr %32, i64 32
  store ptr %38, ptr %39, align 8, !tbaa !15
  br label %stb_leakcheck_free.exit

stb_leakcheck_free.exit:                          ; preds = %36, %37
  tail call void @free(ptr noundef nonnull %24) #9
  br label %stb_leakcheck_malloc.exit

40:                                               ; preds = %21
  %41 = getelementptr inbounds i8, ptr %0, i64 -24
  %42 = load i64, ptr %41, align 8, !tbaa !16
  %.not = icmp ugt i64 %1, %42
  br i1 %.not, label %43, label %stb_leakcheck_malloc.exit

43:                                               ; preds = %40
  %44 = add i64 %1, 40
  %45 = tail call noalias ptr @malloc(i64 noundef %44) #8
  %46 = icmp eq ptr %45, null
  br i1 %46, label %stb_leakcheck_malloc.exit, label %47

47:                                               ; preds = %43
  store ptr %2, ptr %45, align 8, !tbaa !3
  %48 = getelementptr inbounds nuw i8, ptr %45, i64 8
  store i32 %3, ptr %48, align 8, !tbaa !12
  %49 = load ptr, ptr @mi_head, align 8, !tbaa !13
  %50 = getelementptr inbounds nuw i8, ptr %45, i64 24
  store ptr %49, ptr %50, align 8, !tbaa !14
  %.not.i24 = icmp eq ptr %49, null
  br i1 %.not.i24, label %53, label %51

51:                                               ; preds = %47
  %52 = getelementptr inbounds nuw i8, ptr %49, i64 32
  store ptr %45, ptr %52, align 8, !tbaa !15
  br label %53

53:                                               ; preds = %47, %51
  %54 = getelementptr inbounds nuw i8, ptr %45, i64 32
  store ptr null, ptr %54, align 8, !tbaa !15
  %sext.i25 = shl i64 %1, 32
  %55 = ashr exact i64 %sext.i25, 32
  %56 = getelementptr inbounds nuw i8, ptr %45, i64 16
  store i64 %55, ptr %56, align 8, !tbaa !16
  store ptr %45, ptr @mi_head, align 8, !tbaa !13
  %57 = getelementptr inbounds nuw i8, ptr %45, i64 40
  tail call void @llvm.memcpy.p0.p0.i64(ptr nonnull align 1 %57, ptr nonnull align 1 %0, i64 %42, i1 false)
  %58 = getelementptr inbounds i8, ptr %0, i64 -40
  %59 = xor i64 %42, -1
  store i64 %59, ptr %41, align 8, !tbaa !16
  %60 = getelementptr inbounds i8, ptr %0, i64 -8
  %61 = load ptr, ptr %60, align 8, !tbaa !15
  %62 = icmp eq ptr %61, null
  %63 = getelementptr inbounds i8, ptr %0, i64 -16
  %64 = load ptr, ptr %63, align 8, !tbaa !14
  br i1 %62, label %65, label %66

65:                                               ; preds = %53
  store ptr %64, ptr @mi_head, align 8, !tbaa !13
  br label %68

66:                                               ; preds = %53
  %67 = getelementptr inbounds nuw i8, ptr %61, i64 24
  store ptr %64, ptr %67, align 8, !tbaa !14
  br label %68

68:                                               ; preds = %66, %65
  %.not14.i29 = icmp eq ptr %64, null
  br i1 %.not14.i29, label %stb_leakcheck_free.exit30, label %69

69:                                               ; preds = %68
  %70 = load ptr, ptr %60, align 8, !tbaa !15
  %71 = getelementptr inbounds nuw i8, ptr %64, i64 32
  store ptr %70, ptr %71, align 8, !tbaa !15
  br label %stb_leakcheck_free.exit30

stb_leakcheck_free.exit30:                        ; preds = %68, %69
  tail call void @free(ptr noundef nonnull %58) #9
  br label %stb_leakcheck_malloc.exit

stb_leakcheck_malloc.exit:                        ; preds = %43, %16, %6, %40, %stb_leakcheck_free.exit30, %stb_leakcheck_free.exit
  %.0 = phi ptr [ null, %stb_leakcheck_free.exit ], [ %0, %40 ], [ %57, %stb_leakcheck_free.exit30 ], [ %20, %16 ], [ null, %6 ], [ null, %43 ]
  ret ptr %.0
}